target datalayout = "e-m:e-p270:32:32-p271:32:32-p272:64:64-i64:64-i128:128-f80:128-n8:16:32:64-S128"
target triple = "x86_64-pc-linux-gnu"

@mpd_moduli = external hidden constant [0 x i64], align 8

; Function Attrs: inlinehint nounwind uwtable
define internal i32 @ispower2(i64 noundef %0) #2 {
  %2 = alloca i64, align 8
  store i64 %0, ptr %2, align 8, !tbaa !8
  %3 = load i64, ptr %2, align 8, !tbaa !8
  %4 = icmp ne i64 %3, 0
  br i1 %4, label %5, label %11

5:                                                ; preds = %1
  %6 = load i64, ptr %2, align 8, !tbaa !8
  %7 = load i64, ptr %2, align 8, !tbaa !8
  %8 = sub i64 %7, 1
  %9 = and i64 %6, %8
  %10 = icmp eq i64 %9, 0
  br label %11

11:                                               ; preds = %5, %1
  %12 = phi i1 [ false, %1 ], [ %10, %5 ]
  %13 = zext i1 %12 to i32
  ret i32 %13
}

; Function Attrs: inlinehint nounwind uwtable
define internal void @std_setmodulus(i32 noundef %0, ptr noundef %1) #2 {
  %3 = alloca i32, align 4
  %4 = alloca ptr, align 8
  store i32 %0, ptr %3, align 4, !tbaa !10
  store ptr %1, ptr %4, align 8, !tbaa !3
  %5 = load i32, ptr %3, align 4, !tbaa !10
  %6 = sext i32 %5 to i64
  %7 = getelementptr [0 x i64], ptr @mpd_moduli, i64 0, i64 %6
  %8 = load i64, ptr %7, align 8, !tbaa !8
  %9 = load ptr, ptr %4, align 8, !tbaa !3
  store i64 %8, ptr %9, align 8, !tbaa !8
  ret void
}

; Function Attrs: nounwind uwtable
define hidden i32 @fnt_autoconvolute(ptr noundef %0, i64 noundef %1, i32 noundef %2) #0 {
  %4 = alloca i32, align 4
  %5 = alloca ptr, align 8
  %6 = alloca i64, align 8
  %7 = alloca i32, align 4
  %8 = alloca ptr, align 8
  %9 = alloca ptr, align 8
  %10 = alloca i64, align 8
  %11 = alloca i64, align 8
  %12 = alloca i64, align 8
  %13 = alloca i32, align 4
  %14 = alloca i64, align 8
  %15 = alloca i64, align 8
  %16 = alloca i64, align 8
  %17 = alloca i64, align 8
  %18 = alloca i64, align 8
  %19 = alloca i64, align 8
  store ptr %0, ptr %5, align 8, !tbaa !3
  store i64 %1, ptr %6, align 8, !tbaa !8
  store i32 %2, ptr %7, align 4, !tbaa !10
  call void @llvm.lifetime.start.p0(i64 8, ptr %8) #4
  call void @llvm.lifetime.start.p0(i64 8, ptr %9) #4
  call void @llvm.lifetime.start.p0(i64 8, ptr %10) #4
  call void @llvm.lifetime.start.p0(i64 8, ptr %11) #4
  call void @llvm.lifetime.start.p0(i64 8, ptr %12) #4
  %20 = load i32, ptr %7, align 4, !tbaa !10
  call void @std_setmodulus(i32 noundef %20, ptr noundef %11)
  %21 = load i64, ptr %6, align 8, !tbaa !8
  %22 = load i64, ptr %11, align 8, !tbaa !8
  %23 = sub i64 %22, 2
  %24 = load i64, ptr %11, align 8, !tbaa !8
  %25 = call i64 @x64_powmod(i64 noundef %21, i64 noundef %23, i64 noundef %24)
  store i64 %25, ptr %10, align 8, !tbaa !8
  %26 = load i64, ptr %6, align 8, !tbaa !8
  %27 = call i32 @ispower2(i64 noundef %26)
  %28 = icmp ne i32 %27, 0
  br i1 %28, label %29, label %35

29:                                               ; preds = %3
  %30 = load i64, ptr %6, align 8, !tbaa !8
  %31 = icmp ugt i64 %30, 4096
  br i1 %31, label %32, label %33

32:                                               ; preds = %29
  store ptr @six_step_fnt, ptr %8, align 8, !tbaa !12
  store ptr @inv_six_step_fnt, ptr %9, align 8, !tbaa !12
  br label %34

33:                                               ; preds = %29
  store ptr @std_fnt, ptr %8, align 8, !tbaa !12
  store ptr @std_inv_fnt, ptr %9, align 8, !tbaa !12
  br label %34

34:                                               ; preds = %33, %32
  br label %36

35:                                               ; preds = %3
  store ptr @four_step_fnt, ptr %8, align 8, !tbaa !12
  store ptr @inv_four_step_fnt, ptr %9, align 8, !tbaa !12
  br label %36

36:                                               ; preds = %35, %34
  %37 = load ptr, ptr %8, align 8, !tbaa !12
  %38 = load ptr, ptr %5, align 8, !tbaa !3
  %39 = load i64, ptr %6, align 8, !tbaa !8
  %40 = load i32, ptr %7, align 4, !tbaa !10
  %41 = call i32 %37(ptr noundef %38, i64 noundef %39, i32 noundef %40)
  %42 = icmp ne i32 %41, 0
  br i1 %42, label %44, label %43

43:                                               ; preds = %36
  store i32 0, ptr %4, align 4
  store i32 1, ptr %13, align 4
  br label %136

44:                                               ; preds = %36
  store i64 0, ptr %12, align 8, !tbaa !8
  br label %45

45:                                               ; preds = %72, %44
  %46 = load i64, ptr %12, align 8, !tbaa !8
  %47 = load i64, ptr %6, align 8, !tbaa !8
  %48 = sub i64 %47, 1
  %49 = icmp ult i64 %46, %48
  br i1 %49, label %50, label %75

50:                                               ; preds = %45
  call void @llvm.lifetime.start.p0(i64 8, ptr %14) #4
  %51 = load ptr, ptr %5, align 8, !tbaa !3
  %52 = load i64, ptr %12, align 8, !tbaa !8
  %53 = getelementptr i64, ptr %51, i64 %52
  %54 = load i64, ptr %53, align 8, !tbaa !8
  store i64 %54, ptr %14, align 8, !tbaa !8
  call void @llvm.lifetime.start.p0(i64 8, ptr %15) #4
  %55 = load ptr, ptr %5, align 8, !tbaa !3
  %56 = load i64, ptr %12, align 8, !tbaa !8
  %57 = add i64 %56, 1
  %58 = getelementptr i64, ptr %55, i64 %57
  %59 = load i64, ptr %58, align 8, !tbaa !8
  store i64 %59, ptr %15, align 8, !tbaa !8
  %60 = load i64, ptr %14, align 8, !tbaa !8
  %61 = load i64, ptr %15, align 8, !tbaa !8
  %62 = load i64, ptr %11, align 8, !tbaa !8
  call void @x64_mulmod2(ptr noundef %14, i64 noundef %60, ptr noundef %15, i64 noundef %61, i64 noundef %62)
  %63 = load i64, ptr %14, align 8, !tbaa !8
  %64 = load ptr, ptr %5, align 8, !tbaa !3
  %65 = load i64, ptr %12, align 8, !tbaa !8
  %66 = getelementptr i64, ptr %64, i64 %65
  store i64 %63, ptr %66, align 8, !tbaa !8
  %67 = load i64, ptr %15, align 8, !tbaa !8
  %68 = load ptr, ptr %5, align 8, !tbaa !3
  %69 = load i64, ptr %12, align 8, !tbaa !8
  %70 = add i64 %69, 1
  %71 = getelementptr i64, ptr %68, i64 %70
  store i64 %67, ptr %71, align 8, !tbaa !8
  call void @llvm.lifetime.end.p0(i64 8, ptr %15) #4
  call void @llvm.lifetime.end.p0(i64 8, ptr %14) #4
  br label %72

72:                                               ; preds = %50
  %73 = load i64, ptr %12, align 8, !tbaa !8
  %74 = add i64 %73, 2
  store i64 %74, ptr %12, align 8, !tbaa !8
  br label %45, !llvm.loop !17

75:                                               ; preds = %45
  %76 = load ptr, ptr %9, align 8, !tbaa !12
  %77 = load ptr, ptr %5, align 8, !tbaa !3
  %78 = load i64, ptr %6, align 8, !tbaa !8
  %79 = load i32, ptr %7, align 4, !tbaa !10
  %80 = call i32 %76(ptr noundef %77, i64 noundef %78, i32 noundef %79)
  %81 = icmp ne i32 %80, 0
  br i1 %81, label %83, label %82

82:                                               ; preds = %75
  store i32 0, ptr %4, align 4
  store i32 1, ptr %13, align 4
  br label %136

83:                                               ; preds = %75
  store i64 0, ptr %12, align 8, !tbaa !8
  br label %84

84:                                               ; preds = %132, %83
  %85 = load i64, ptr %12, align 8, !tbaa !8
  %86 = load i64, ptr %6, align 8, !tbaa !8
  %87 = sub i64 %86, 3
  %88 = icmp ult i64 %85, %87
  br i1 %88, label %89, label %135

89:                                               ; preds = %84
  call void @llvm.lifetime.start.p0(i64 8, ptr %16) #4
  %90 = load ptr, ptr %5, align 8, !tbaa !3
  %91 = load i64, ptr %12, align 8, !tbaa !8
  %92 = getelementptr i64, ptr %90, i64 %91
  %93 = load i64, ptr %92, align 8, !tbaa !8
  store i64 %93, ptr %16, align 8, !tbaa !8
  call void @llvm.lifetime.start.p0(i64 8, ptr %17) #4
  %94 = load ptr, ptr %5, align 8, !tbaa !3
  %95 = load i64, ptr %12, align 8, !tbaa !8
  %96 = add i64 %95, 1
  %97 = getelementptr i64, ptr %94, i64 %96
  %98 = load i64, ptr %97, align 8, !tbaa !8
  store i64 %98, ptr %17, align 8, !tbaa !8
  call void @llvm.lifetime.start.p0(i64 8, ptr %18) #4
  %99 = load ptr, ptr %5, align 8, !tbaa !3
  %100 = load i64, ptr %12, align 8, !tbaa !8
  %101 = add i64 %100, 2
  %102 = getelementptr i64, ptr %99, i64 %101
  %103 = load i64, ptr %102, align 8, !tbaa !8
  store i64 %103, ptr %18, align 8, !tbaa !8
  call void @llvm.lifetime.start.p0(i64 8, ptr %19) #4
  %104 = load ptr, ptr %5, align 8, !tbaa !3
  %105 = load i64, ptr %12, align 8, !tbaa !8
  %106 = add i64 %105, 3
  %107 = getelementptr i64, ptr %104, i64 %106
  %108 = load i64, ptr %107, align 8, !tbaa !8
  store i64 %108, ptr %19, align 8, !tbaa !8
  %109 = load i64, ptr %10, align 8, !tbaa !8
  %110 = load i64, ptr %11, align 8, !tbaa !8
  call void @x64_mulmod2c(ptr noundef %16, ptr noundef %17, i64 noundef %109, i64 noundef %110)
  %111 = load i64, ptr %10, align 8, !tbaa !8
  %112 = load i64, ptr %11, align 8, !tbaa !8
  call void @x64_mulmod2c(ptr noundef %18, ptr noundef %19, i64 noundef %111, i64 noundef %112)
  %113 = load i64, ptr %16, align 8, !tbaa !8
  %114 = load ptr, ptr %5, align 8, !tbaa !3
  %115 = load i64, ptr %12, align 8, !tbaa !8
  %116 = getelementptr i64, ptr %114, i64 %115
  store i64 %113, ptr %116, align 8, !tbaa !8
  %117 = load i64, ptr %17, align 8, !tbaa !8
  %118 = load ptr, ptr %5, align 8, !tbaa !3
  %119 = load i64, ptr %12, align 8, !tbaa !8
  %120 = add i64 %119, 1
  %121 = getelementptr i64, ptr %118, i64 %120
  store i64 %117, ptr %121, align 8, !tbaa !8
  %122 = load i64, ptr %18, align 8, !tbaa !8
  %123 = load ptr, ptr %5, align 8, !tbaa !3
  %124 = load i64, ptr %12, align 8, !tbaa !8
  %125 = add i64 %124, 2
  %126 = getelementptr i64, ptr %123, i64 %125
  store i64 %122, ptr %126, align 8, !tbaa !8
  %127 = load i64, ptr %19, align 8, !tbaa !8
  %128 = load ptr, ptr %5, align 8, !tbaa !3
  %129 = load i64, ptr %12, align 8, !tbaa !8
  %130 = add i64 %129, 3
  %131 = getelementptr i64, ptr %128, i64 %130
  store i64 %127, ptr %131, align 8, !tbaa !8
  call void @llvm.lifetime.end.p0(i64 8, ptr %19) #4
  call void @llvm.lifetime.end.p0(i64 8, ptr %18) #4
  call void @llvm.lifetime.end.p0(i64 8, ptr %17) #4
  call void @llvm.lifetime.end.p0(i64 8, ptr %16) #4
  br label %132

132:                                              ; preds = %89
  %133 = load i64, ptr %12, align 8, !tbaa !8
  %134 = add i64 %133, 4
  store i64 %134, ptr %12, align 8, !tbaa !8
  br label %84, !llvm.loop !18

135:                                              ; preds = %84
  store i32 1, ptr %4, align 4
  store i32 1, ptr %13, align 4
  br label %136

136:                                              ; preds = %135, %82, %43
  call void @llvm.lifetime.end.p0(i64 8, ptr %12) #4
  call void @llvm.lifetime.end.p0(i64 8, ptr %11) #4
  call void @llvm.lifetime.end.p0(i64 8, ptr %10) #4
  call void @llvm.lifetime.end.p0(i64 8, ptr %9) #4
  call void @llvm.lifetime.end.p0(i64 8, ptr %8) #4
  %137 = load i32, ptr %4, align 4
  ret i32 %137
}