; Function Attrs: nounwind uwtable
define hidden range(i32 0, 2) i32 @fnt_autoconvolute(ptr noundef %0, i64 noundef %1, i32 noundef %2) local_unnamed_addr #0 {
.thread:
  %3 = alloca i64, align 8
  %4 = alloca i64, align 8
  %5 = alloca i64, align 8
  %6 = alloca i64, align 8
  %7 = alloca i64, align 8
  %8 = alloca i64, align 8
  %9 = sext i32 %2 to i64
  %10 = getelementptr [0 x i64], ptr @mpd_moduli, i64 0, i64 %9
  %11 = load i64, ptr %10, align 8, !tbaa !3
  %12 = add i64 %11, -2
  %13 = tail call fastcc i64 @x64_powmod(i64 noundef %1, i64 noundef %12, i64 noundef %11)
  %14 = tail call range(i64 0, 65) i64 @llvm.ctpop.i64(i64 %1)
  %or.cond.not = icmp eq i64 %14, 1
  %15 = icmp ugt i64 %1, 4096
  %inv_six_step_fnt.std_inv_fnt = select i1 %15, ptr @inv_six_step_fnt, ptr @std_inv_fnt
  %six_step_fnt.std_fnt = select i1 %15, ptr @six_step_fnt, ptr @std_fnt
  %16 = select i1 %or.cond.not, ptr %six_step_fnt.std_fnt, ptr @four_step_fnt
  %17 = select i1 %or.cond.not, ptr %inv_six_step_fnt.std_inv_fnt, ptr @inv_four_step_fnt
  %18 = tail call i32 %16(ptr noundef %0, i64 noundef %1, i32 noundef %2) #6, !callees !7
  %.not47 = icmp eq i32 %18, 0
  br i1 %.not47, label %.loopexit, label %.preheader52

.preheader52:                                     ; preds = %.thread
  %19 = add i64 %1, -1
  %.not56 = icmp eq i64 %19, 0
  br i1 %.not56, label %._crit_edge, label %.lr.ph

.lr.ph:                                           ; preds = %.preheader52, %.lr.ph
  %.053 = phi i64 [ %27, %.lr.ph ], [ 0, %.preheader52 ]
  call void @llvm.lifetime.start.p0(i64 8, ptr nonnull %3) #6
  %20 = getelementptr i64, ptr %0, i64 %.053
  %21 = load i64, ptr %20, align 8, !tbaa !3
  store i64 %21, ptr %3, align 8, !tbaa !3
  call void @llvm.lifetime.start.p0(i64 8, ptr nonnull %4) #6
  %22 = or disjoint i64 %.053, 1
  %23 = getelementptr i64, ptr %0, i64 %22
  %24 = load i64, ptr %23, align 8, !tbaa !3
  store i64 %24, ptr %4, align 8, !tbaa !3
  call fastcc void @x64_mulmod2(ptr noundef %3, i64 noundef %21, ptr noundef %4, i64 noundef %24, i64 noundef %11)
  %25 = load i64, ptr %3, align 8, !tbaa !3
  store i64 %25, ptr %20, align 8, !tbaa !3
  %26 = load i64, ptr %4, align 8, !tbaa !3
  store i64 %26, ptr %23, align 8, !tbaa !3
  call void @llvm.lifetime.end.p0(i64 8, ptr nonnull %4) #6
  call void @llvm.lifetime.end.p0(i64 8, ptr nonnull %3) #6
  %27 = add i64 %.053, 2
  %28 = icmp ult i64 %27, %19
  br i1 %28, label %.lr.ph, label %._crit_edge, !llvm.loop !13

._crit_edge:                                      ; preds = %.lr.ph, %.preheader52
  %29 = tail call i32 %17(ptr noundef %0, i64 noundef %1, i32 noundef %2) #6, !callees !10
  %.not48 = icmp eq i32 %29, 0
  br i1 %.not48, label %.loopexit, label %.preheader

.preheader:                                       ; preds = %._crit_edge
  %30 = add i64 %1, -3
  %.not57 = icmp eq i64 %30, 0
  br i1 %.not57, label %.loopexit, label %.lr.ph55

.lr.ph55:                                         ; preds = %.preheader, %.lr.ph55
  %.154 = phi i64 [ %46, %.lr.ph55 ], [ 0, %.preheader ]
  call void @llvm.lifetime.start.p0(i64 8, ptr nonnull %5) #6
  %31 = getelementptr i64, ptr %0, i64 %.154
  %32 = load i64, ptr %31, align 8, !tbaa !3
  store i64 %32, ptr %5, align 8, !tbaa !3
  call void @llvm.lifetime.start.p0(i64 8, ptr nonnull %6) #6
  %33 = or disjoint i64 %.154, 1
  %34 = getelementptr i64, ptr %0, i64 %33
  %35 = load i64, ptr %34, align 8, !tbaa !3
  store i64 %35, ptr %6, align 8, !tbaa !3
  call void @llvm.lifetime.start.p0(i64 8, ptr nonnull %7) #6
  %36 = or disjoint i64 %.154, 2
  %37 = getelementptr i64, ptr %0, i64 %36
  %38 = load i64, ptr %37, align 8, !tbaa !3
  store i64 %38, ptr %7, align 8, !tbaa !3
  call void @llvm.lifetime.start.p0(i64 8, ptr nonnull %8) #6
  %39 = or disjoint i64 %.154, 3
  %40 = getelementptr i64, ptr %0, i64 %39
  %41 = load i64, ptr %40, align 8, !tbaa !3
  store i64 %41, ptr %8, align 8, !tbaa !3
  call fastcc void @x64_mulmod2c(ptr noundef %5, ptr noundef %6, i64 noundef %13, i64 noundef %11)
  call fastcc void @x64_mulmod2c(ptr noundef %7, ptr noundef %8, i64 noundef %13, i64 noundef %11)
  %42 = load i64, ptr %5, align 8, !tbaa !3
  store i64 %42, ptr %31, align 8, !tbaa !3
  %43 = load i64, ptr %6, align 8, !tbaa !3
  store i64 %43, ptr %34, align 8, !tbaa !3
  %44 = load i64, ptr %7, align 8, !tbaa !3
  store i64 %44, ptr %37, align 8, !tbaa !3
  %45 = load i64, ptr %8, align 8, !tbaa !3
  store i64 %45, ptr %40, align 8, !tbaa !3
  call void @llvm.lifetime.end.p0(i64 8, ptr nonnull %8) #6
  call void @llvm.lifetime.end.p0(i64 8, ptr nonnull %7) #6
  call void @llvm.lifetime.end.p0(i64 8, ptr nonnull %6) #6
  call void @llvm.lifetime.end.p0(i64 8, ptr nonnull %5) #6
  %46 = add i64 %.154, 4
  %47 = icmp ult i64 %46, %30
  br i1 %47, label %.lr.ph55, label %.loopexit, !llvm.loop !14

.loopexit:                                        ; preds = %.lr.ph55, %.preheader, %._crit_edge, %.thread
  %.044 = phi i32 [ 0, %.thread ], [ 0, %._crit_edge ], [ 1, %.preheader ], [ 1, %.lr.ph55 ]
  ret i32 %.044
}